; ModuleID = '51/220.c'
source_filename = "51/220.c"
target datalayout = "e-m:e-p270:32:32-p271:32:32-p272:64:64-i64:64-f80:128-n8:16:32:64-S128"
target triple = "x86_64-pc-linux-gnu"

@.str = private unnamed_addr constant [4 x i8] c"%d\0A\00", align 1
@.str.1 = private unnamed_addr constant [3 x i8] c"NO\00", align 1

; Function Attrs: noinline nounwind uwtable
define dso_local i32 @main() #0 {
  %1 = alloca i32, align 4
  %2 = alloca i32, align 4
  %3 = alloca [500 x i32], align 16
  %4 = alloca i32, align 4
  %5 = alloca i32, align 4
  %6 = alloca i32, align 4
  %7 = alloca i32, align 4
  %8 = alloca i32, align 4
  %9 = alloca [500 x i8], align 16
  %10 = alloca [500 x [5 x i8]], align 16
  store i32 0, i32* %1, align 4
  %11 = call i32 (i8*, ...) @__isoc99_scanf(i8* getelementptr inbounds ([4 x i8], [4 x i8]* @.str, i64 0, i64 0), i32* %2)
  %12 = getelementptr inbounds [500 x i8], [500 x i8]* %9, i64 0, i64 0
  %13 = call i32 (i8*, ...) bitcast (i32 (...)* @gets to i32 (i8*, ...)*)(i8* %12)
  store i32 0, i32* %5, align 4
  br label %14

14:                                               ; preds = %46, %0
  %15 = load i32, i32* %5, align 4
  %16 = sext i32 %15 to i64
  %17 = getelementptr inbounds [500 x i8], [500 x i8]* %9, i64 0, i64 0
  %18 = call i64 @strlen(i8* %17) #3
  %19 = load i32, i32* %2, align 4
  %20 = sext i32 %19 to i64
  %21 = sub i64 %18, %20
  %22 = add i64 %21, 1
  %23 = icmp ult i64 %16, %22
  br i1 %23, label %24, label %49

24:                                               ; preds = %14
  store i32 0, i32* %6, align 4
  br label %25

25:                                               ; preds = %42, %24
  %26 = load i32, i32* %6, align 4
  %27 = load i32, i32* %2, align 4
  %28 = icmp slt i32 %26, %27
  br i1 %28, label %29, label %45

29:                                               ; preds = %25
  %30 = load i32, i32* %5, align 4
  %31 = load i32, i32* %6, align 4
  %32 = add nsw i32 %30, %31
  %33 = sext i32 %32 to i64
  %34 = getelementptr inbounds [500 x i8], [500 x i8]* %9, i64 0, i64 %33
  %35 = load i8, i8* %34, align 1
  %36 = load i32, i32* %5, align 4
  %37 = sext i32 %36 to i64
  %38 = getelementptr inbounds [500 x [5 x i8]], [500 x [5 x i8]]* %10, i64 0, i64 %37
  %39 = load i32, i32* %6, align 4
  %40 = sext i32 %39 to i64
  %41 = getelementptr inbounds [5 x i8], [5 x i8]* %38, i64 0, i64 %40
  store i8 %35, i8* %41, align 1
  br label %42

42:                                               ; preds = %29
  %43 = load i32, i32* %6, align 4
  %44 = add nsw i32 %43, 1
  store i32 %44, i32* %6, align 4
  br label %25

45:                                               ; preds = %25
  br label %46

46:                                               ; preds = %45
  %47 = load i32, i32* %5, align 4
  %48 = add nsw i32 %47, 1
  store i32 %48, i32* %5, align 4
  br label %14

49:                                               ; preds = %14
  store i32 0, i32* %5, align 4
  br label %50

50:                                               ; preds = %118, %49
  %51 = load i32, i32* %5, align 4
  %52 = sext i32 %51 to i64
  %53 = getelementptr inbounds [500 x i8], [500 x i8]* %9, i64 0, i64 0
  %54 = call i64 @strlen(i8* %53) #3
  %55 = load i32, i32* %2, align 4
  %56 = sext i32 %55 to i64
  %57 = sub i64 %54, %56
  %58 = add i64 %57, 1
  %59 = icmp ult i64 %52, %58
  br i1 %59, label %60, label %121

60:                                               ; preds = %50
  %61 = load i32, i32* %5, align 4
  %62 = sext i32 %61 to i64
  %63 = getelementptr inbounds [500 x i32], [500 x i32]* %3, i64 0, i64 %62
  store i32 1, i32* %63, align 4
  %64 = load i32, i32* %5, align 4
  %65 = add nsw i32 %64, 1
  store i32 %65, i32* %6, align 4
  br label %66

66:                                               ; preds = %114, %60
  %67 = load i32, i32* %6, align 4
  %68 = sext i32 %67 to i64
  %69 = getelementptr inbounds [500 x i8], [500 x i8]* %9, i64 0, i64 0
  %70 = call i64 @strlen(i8* %69) #3
  %71 = load i32, i32* %2, align 4
  %72 = sext i32 %71 to i64
  %73 = sub i64 %70, %72
  %74 = add i64 %73, 1
  %75 = icmp ult i64 %68, %74
  br i1 %75, label %76, label %117

76:                                               ; preds = %66
  store i32 0, i32* %4, align 4
  store i32 0, i32* %7, align 4
  br label %77

77:                                               ; preds = %101, %76
  %78 = load i32, i32* %7, align 4
  %79 = load i32, i32* %2, align 4
  %80 = icmp slt i32 %78, %79
  br i1 %80, label %81, label %104

81:                                               ; preds = %77
  %82 = load i32, i32* %5, align 4
  %83 = sext i32 %82 to i64
  %84 = getelementptr inbounds [500 x [5 x i8]], [500 x [5 x i8]]* %10, i64 0, i64 %83
  %85 = load i32, i32* %7, align 4
  %86 = sext i32 %85 to i64
  %87 = getelementptr inbounds [5 x i8], [5 x i8]* %84, i64 0, i64 %86
  %88 = load i8, i8* %87, align 1
  %89 = sext i8 %88 to i32
  %90 = load i32, i32* %6, align 4
  %91 = sext i32 %90 to i64
  %92 = getelementptr inbounds [500 x [5 x i8]], [500 x [5 x i8]]* %10, i64 0, i64 %91
  %93 = load i32, i32* %7, align 4
  %94 = sext i32 %93 to i64
  %95 = getelementptr inbounds [5 x i8], [5 x i8]* %92, i64 0, i64 %94
  %96 = load i8, i8* %95, align 1
  %97 = sext i8 %96 to i32
  %98 = icmp ne i32 %89, %97
  br i1 %98, label %99, label %100

99:                                               ; preds = %81
  store i32 1, i32* %4, align 4
  br label %104

100:                                              ; preds = %81
  br label %101

101:                                              ; preds = %100
  %102 = load i32, i32* %7, align 4
  %103 = add nsw i32 %102, 1
  store i32 %103, i32* %7, align 4
  br label %77

104:                                              ; preds = %99, %77
  %105 = load i32, i32* %4, align 4
  %106 = icmp eq i32 %105, 0
  br i1 %106, label %107, label %113

107:                                              ; preds = %104
  %108 = load i32, i32* %5, align 4
  %109 = sext i32 %108 to i64
  %110 = getelementptr inbounds [500 x i32], [500 x i32]* %3, i64 0, i64 %109
  %111 = load i32, i32* %110, align 4
  %112 = add nsw i32 %111, 1
  store i32 %112, i32* %110, align 4
  br label %113

113:                                              ; preds = %107, %104
  br label %114

114:                                              ; preds = %113
  %115 = load i32, i32* %6, align 4
  %116 = add nsw i32 %115, 1
  store i32 %116, i32* %6, align 4
  br label %66

117:                                              ; preds = %66
  br label %118

118:                                              ; preds = %117
  %119 = load i32, i32* %5, align 4
  %120 = add nsw i32 %119, 1
  store i32 %120, i32* %5, align 4
  br label %50

121:                                              ; preds = %50
  store i32 0, i32* %8, align 4
  store i32 0, i32* %5, align 4
  br label %122

122:                                              ; preds = %145, %121
  %123 = load i32, i32* %5, align 4
  %124 = sext i32 %123 to i64
  %125 = getelementptr inbounds [500 x i8], [500 x i8]* %9, i64 0, i64 0
  %126 = call i64 @strlen(i8* %125) #3
  %127 = load i32, i32* %2, align 4
  %128 = sext i32 %127 to i64
  %129 = sub i64 %126, %128
  %130 = add i64 %129, 1
  %131 = icmp ult i64 %124, %130
  br i1 %131, label %132, label %148

132:                                              ; preds = %122
  %133 = load i32, i32* %5, align 4
  %134 = sext i32 %133 to i64
  %135 = getelementptr inbounds [500 x i32], [500 x i32]* %3, i64 0, i64 %134
  %136 = load i32, i32* %135, align 4
  %137 = load i32, i32* %8, align 4
  %138 = icmp sgt i32 %136, %137
  br i1 %138, label %139, label %144

139:                                              ; preds = %132
  %140 = load i32, i32* %5, align 4
  %141 = sext i32 %140 to i64
  %142 = getelementptr inbounds [500 x i32], [500 x i32]* %3, i64 0, i64 %141
  %143 = load i32, i32* %142, align 4
  store i32 %143, i32* %8, align 4
  br label %144

144:                                              ; preds = %139, %132
  br label %145

145:                                              ; preds = %144
  %146 = load i32, i32* %5, align 4
  %147 = add nsw i32 %146, 1
  store i32 %147, i32* %5, align 4
  br label %122

148:                                              ; preds = %122
  %149 = load i32, i32* %8, align 4
  %150 = icmp eq i32 %149, 1
  br i1 %150, label %151, label %153

151:                                              ; preds = %148
  %152 = call i32 (i8*, ...) @printf(i8* getelementptr inbounds ([3 x i8], [3 x i8]* @.str.1, i64 0, i64 0))
  br label %184

153:                                              ; preds = %148
  %154 = load i32, i32* %8, align 4
  %155 = call i32 (i8*, ...) @printf(i8* getelementptr inbounds ([4 x i8], [4 x i8]* @.str, i64 0, i64 0), i32 %154)
  store i32 0, i32* %5, align 4
  br label %156

156:                                              ; preds = %180, %153
  %157 = load i32, i32* %5, align 4
  %158 = sext i32 %157 to i64
  %159 = getelementptr inbounds [500 x i8], [500 x i8]* %9, i64 0, i64 0
  %160 = call i64 @strlen(i8* %159) #3
  %161 = load i32, i32* %2, align 4
  %162 = sext i32 %161 to i64
  %163 = sub i64 %160, %162
  %164 = add i64 %163, 1
  %165 = icmp ult i64 %158, %164
  br i1 %165, label %166, label %183

166:                                              ; preds = %156
  %167 = load i32, i32* %5, align 4
  %168 = sext i32 %167 to i64
  %169 = getelementptr inbounds [500 x i32], [500 x i32]* %3, i64 0, i64 %168
  %170 = load i32, i32* %169, align 4
  %171 = load i32, i32* %8, align 4
  %172 = icmp eq i32 %170, %171
  br i1 %172, label %173, label %179

173:                                              ; preds = %166
  %174 = load i32, i32* %5, align 4
  %175 = sext i32 %174 to i64
  %176 = getelementptr inbounds [500 x [5 x i8]], [500 x [5 x i8]]* %10, i64 0, i64 %175
  %177 = getelementptr inbounds [5 x i8], [5 x i8]* %176, i64 0, i64 0
  %178 = call i32 @puts(i8* %177)
  br label %179

179:                                              ; preds = %173, %166
  br label %180

180:                                              ; preds = %179
  %181 = load i32, i32* %5, align 4
  %182 = add nsw i32 %181, 1
  store i32 %182, i32* %5, align 4
  br label %156

183:                                              ; preds = %156
  br label %184

184:                                              ; preds = %183, %151
  ret i32 0
}

declare dso_local i32 @__isoc99_scanf(i8*, ...) #1

declare dso_local i32 @gets(...) #1

; Function Attrs: nounwind readonly
declare dso_local i64 @strlen(i8*) #2

declare dso_local i32 @printf(i8*, ...) #1

declare dso_local i32 @puts(i8*) #1


!llvm.module.flags = !{!0}
!llvm.ident = !{!1}

!0 = !{i32 1, !"wchar_size", i32 4}
!1 = !{!"clang version 10.0.0-4ubuntu1 "}
